; Function Attrs: mustprogress uwtable
define noundef range(i64 -1152921504606846976, 1152921504606846976) i64 @_ZN5faiss18ArrayInvertedLists11add_entriesEmmPKlPKh(ptr noundef nonnull readonly align 8 captures(none) dereferenceable(80) %0, i64 noundef %1, i64 noundef %2, ptr noundef readonly captures(none) %3, ptr noundef readonly captures(none) %4) unnamed_addr #2 align 2 personality ptr @__gxx_personality_v0 {
  %6 = icmp eq i64 %2, 0
  br i1 %6, label %42, label %7

7:                                                ; preds = %5
  %8 = getelementptr inbounds nuw i8, ptr %0, i64 56
  %9 = load ptr, ptr %8, align 8, !tbaa !42
  %10 = getelementptr inbounds nuw %"class.std::vector", ptr %9, i64 %1
  %11 = getelementptr inbounds nuw i8, ptr %10, i64 8
  %12 = load ptr, ptr %11, align 8, !tbaa !45
  %13 = load ptr, ptr %10, align 8, !tbaa !47
  %14 = ptrtoint ptr %12 to i64
  %15 = ptrtoint ptr %13 to i64
  %16 = sub i64 %14, %15
  %17 = ashr exact i64 %16, 3
  %18 = add i64 %17, %2
  %19 = icmp ugt i64 %18, %17
  br i1 %19, label %20, label %21

20:                                               ; preds = %7
  tail call void @_ZNSt6vectorIlSaIlEE17_M_default_appendEm(ptr noundef nonnull align 8 dereferenceable(24) %10, i64 noundef %2)
  %.pre = load ptr, ptr %8, align 8, !tbaa !42
  %.phi.trans.insert = getelementptr inbounds nuw %"class.std::vector", ptr %.pre, i64 %1
  %.pre19 = load ptr, ptr %.phi.trans.insert, align 8, !tbaa !47
  br label %_ZNSt6vectorIlSaIlEE6resizeEm.exit

21:                                               ; preds = %7
  %22 = icmp ult i64 %18, %17
  br i1 %22, label %23, label %_ZNSt6vectorIlSaIlEE6resizeEm.exit

23:                                               ; preds = %21
  %24 = getelementptr inbounds nuw i64, ptr %13, i64 %18
  %.not.i.i = icmp eq ptr %12, %24
  br i1 %.not.i.i, label %_ZNSt6vectorIlSaIlEE6resizeEm.exit, label %25

25:                                               ; preds = %23
  store ptr %24, ptr %11, align 8, !tbaa !45
  br label %_ZNSt6vectorIlSaIlEE6resizeEm.exit

_ZNSt6vectorIlSaIlEE6resizeEm.exit:               ; preds = %20, %21, %23, %25
  %26 = phi ptr [ %.pre19, %20 ], [ %13, %21 ], [ %13, %23 ], [ %13, %25 ]
  %27 = getelementptr inbounds nuw i8, ptr %26, i64 %16
  %28 = shl i64 %2, 3
  tail call void @llvm.memcpy.p0.p0.i64(ptr nonnull align 8 %27, ptr align 8 %3, i64 %28, i1 false)
  %29 = getelementptr inbounds nuw i8, ptr %0, i64 32
  %30 = load ptr, ptr %29, align 8, !tbaa !48
  %31 = getelementptr inbounds nuw %"class.std::vector.20", ptr %30, i64 %1
  %32 = getelementptr inbounds nuw i8, ptr %0, i64 16
  %33 = load i64, ptr %32, align 8, !tbaa !10
  %34 = mul i64 %33, %18
  tail call void @_ZNSt6vectorIhSaIhEE6resizeEm(ptr noundef nonnull align 8 dereferenceable(24) %31, i64 noundef %34)
  %35 = load ptr, ptr %29, align 8, !tbaa !48
  %36 = getelementptr inbounds nuw %"class.std::vector.20", ptr %35, i64 %1
  %37 = load i64, ptr %32, align 8, !tbaa !10
  %38 = mul i64 %37, %17
  %39 = load ptr, ptr %36, align 8, !tbaa !51
  %40 = getelementptr inbounds nuw i8, ptr %39, i64 %38
  %41 = mul i64 %37, %2
  tail call void @llvm.memcpy.p0.p0.i64(ptr nonnull align 1 %40, ptr align 1 %4, i64 %41, i1 false)
  br label %42

42:                                               ; preds = %5, %_ZNSt6vectorIlSaIlEE6resizeEm.exit
  %.0 = phi i64 [ %17, %_ZNSt6vectorIlSaIlEE6resizeEm.exit ], [ 0, %5 ]
  ret i64 %.0
}